; Function Attrs: mustprogress uwtable
define dso_local void @_ZNK17ContainerResource11collectKeysESt8functionIFviEE(ptr noundef nonnull readonly align 8 captures(none) dereferenceable(72) %0, ptr noundef %1) unnamed_addr #7 align 2 personality ptr @__gxx_personality_v0 {
  %3 = alloca i32, align 4
  %4 = alloca %"class.std::function", align 8
  %5 = getelementptr inbounds nuw i8, ptr %0, i64 20
  %6 = load i32, ptr %5, align 4, !tbaa !36
  call void @llvm.lifetime.start.p0(i64 4, ptr nonnull %3)
  store i32 %6, ptr %3, align 4, !tbaa !7
  %7 = getelementptr inbounds nuw i8, ptr %1, i64 16
  %8 = load ptr, ptr %7, align 8, !tbaa !129
  %.not.i.i = icmp eq ptr %8, null
  br i1 %.not.i.i, label %9, label %_ZNKSt8functionIFviEEclEi.exit

9:                                                ; preds = %2
  tail call void @_ZSt25__throw_bad_function_callv() #39
  unreachable

_ZNKSt8functionIFviEEclEi.exit:                   ; preds = %2
  %10 = getelementptr inbounds nuw i8, ptr %1, i64 24
  %11 = load ptr, ptr %10, align 8, !tbaa !126
  call void %11(ptr noundef nonnull align 8 dereferenceable(32) %1, ptr noundef nonnull align 4 dereferenceable(4) %3)
  call void @llvm.lifetime.end.p0(i64 4, ptr nonnull %3)
  %12 = getelementptr inbounds nuw i8, ptr %0, i64 64
  %.010 = load ptr, ptr %12, align 8, !tbaa !74
  %.not11 = icmp eq ptr %.010, null
  br i1 %.not11, label %._crit_edge, label %.lr.ph

.lr.ph:                                           ; preds = %_ZNKSt8functionIFviEEclEi.exit
  %13 = getelementptr inbounds nuw i8, ptr %4, i64 16
  %14 = getelementptr inbounds nuw i8, ptr %4, i64 24
  br label %15

._crit_edge:                                      ; preds = %_ZNSt14_Function_baseD2Ev.exit, %_ZNKSt8functionIFviEEclEi.exit
  ret void

15:                                               ; preds = %.lr.ph, %_ZNSt14_Function_baseD2Ev.exit
  %.012 = phi ptr [ %.010, %.lr.ph ], [ %.0, %_ZNSt14_Function_baseD2Ev.exit ]
  call void @llvm.memset.p0.i64(ptr noundef nonnull align 8 dereferenceable(32) %4, i8 0, i64 32, i1 false)
  %16 = load ptr, ptr %7, align 8, !tbaa !129
  %.not.i.i.not.i = icmp eq ptr %16, null
  br i1 %.not.i.i.not.i, label %_ZNSt8functionIFviEEC2ERKS1_.exit, label %17

17:                                               ; preds = %15
  %18 = invoke noundef zeroext i1 %16(ptr noundef nonnull align 8 dereferenceable(32) %4, ptr noundef nonnull align 8 dereferenceable(32) %1, i32 noundef 2)
          to label %19 unwind label %22

19:                                               ; preds = %17
  %20 = load ptr, ptr %10, align 8, !tbaa !126
  store ptr %20, ptr %14, align 8, !tbaa !126
  %21 = load ptr, ptr %7, align 8, !tbaa !129
  store ptr %21, ptr %13, align 8, !tbaa !129
  br label %_ZNSt8functionIFviEEC2ERKS1_.exit

22:                                               ; preds = %17
  %23 = landingpad { ptr, i32 }
          cleanup
  %24 = load ptr, ptr %13, align 8, !tbaa !129
  %.not.i.i5 = icmp eq ptr %24, null
  br i1 %.not.i.i5, label %common.resume, label %25

25:                                               ; preds = %22
  %26 = invoke noundef zeroext i1 %24(ptr noundef nonnull align 8 dereferenceable(32) %4, ptr noundef nonnull align 8 dereferenceable(32) %4, i32 noundef 3)
          to label %common.resume unwind label %27

27:                                               ; preds = %25
  %28 = landingpad { ptr, i32 }
          catch ptr null
  %29 = extractvalue { ptr, i32 } %28, 0
  call void @__clang_call_terminate(ptr %29) #31
  unreachable

common.resume:                                    ; preds = %44, %41, %22, %25
  %common.resume.op = phi { ptr, i32 } [ %23, %25 ], [ %23, %22 ], [ %42, %41 ], [ %42, %44 ]
  resume { ptr, i32 } %common.resume.op

_ZNSt8functionIFviEEC2ERKS1_.exit:                ; preds = %15, %19
  %30 = load ptr, ptr %.012, align 8, !tbaa !9
  %31 = getelementptr inbounds nuw i8, ptr %30, i64 56
  %32 = load ptr, ptr %31, align 8
  invoke void %32(ptr noundef nonnull align 8 dereferenceable(56) %.012, ptr noundef nonnull %4)
          to label %33 unwind label %41

33:                                               ; preds = %_ZNSt8functionIFviEEC2ERKS1_.exit
  %34 = load ptr, ptr %13, align 8, !tbaa !129
  %.not.i = icmp eq ptr %34, null
  br i1 %.not.i, label %_ZNSt14_Function_baseD2Ev.exit, label %35

35:                                               ; preds = %33
  %36 = invoke noundef zeroext i1 %34(ptr noundef nonnull align 8 dereferenceable(32) %4, ptr noundef nonnull align 8 dereferenceable(32) %4, i32 noundef 3)
          to label %_ZNSt14_Function_baseD2Ev.exit unwind label %37

37:                                               ; preds = %35
  %38 = landingpad { ptr, i32 }
          catch ptr null
  %39 = extractvalue { ptr, i32 } %38, 0
  call void @__clang_call_terminate(ptr %39) #31
  unreachable

_ZNSt14_Function_baseD2Ev.exit:                   ; preds = %33, %35
  %40 = getelementptr inbounds nuw i8, ptr %.012, i64 32
  %.0 = load ptr, ptr %40, align 8, !tbaa !74
  %.not = icmp eq ptr %.0, null
  br i1 %.not, label %._crit_edge, label %15, !llvm.loop !160

41:                                               ; preds = %_ZNSt8functionIFviEEC2ERKS1_.exit
  %42 = landingpad { ptr, i32 }
          cleanup
  %43 = load ptr, ptr %13, align 8, !tbaa !129
  %.not.i6 = icmp eq ptr %43, null
  br i1 %.not.i6, label %common.resume, label %44

44:                                               ; preds = %41
  %45 = invoke noundef zeroext i1 %43(ptr noundef nonnull align 8 dereferenceable(32) %4, ptr noundef nonnull align 8 dereferenceable(32) %4, i32 noundef 3)
          to label %common.resume unwind label %46

46:                                               ; preds = %44
  %47 = landingpad { ptr, i32 }
          catch ptr null
  %48 = extractvalue { ptr, i32 } %47, 0
  call void @__clang_call_terminate(ptr %48) #31
  unreachable
}